; Function Attrs: null_pointer_is_valid sspstrong uwtable
define internal i32 @dissect_h225_H245Control_item(ptr noundef %0, i32 noundef %1, ptr noundef %2, ptr noundef %3, i32 noundef %4) #0 {
  %6 = alloca ptr, align 8
  call void @llvm.lifetime.start.p0(i64 8, ptr nonnull %6) #11
  store ptr null, ptr %6, align 8
  %7 = call i32 @dissect_per_octet_string(ptr noundef %0, i32 noundef %1, ptr noundef %2, ptr noundef %3, i32 noundef %4, i32 noundef -1, i32 noundef -1, i1 noundef zeroext false, ptr noundef nonnull %6)
  %8 = load ptr, ptr @h245_list, align 8
  %9 = load ptr, ptr %6, align 8
  %10 = load i8, ptr @h225_h245_in_tree, align 1, !range !23, !noundef !24
  %11 = trunc nuw i8 %10 to i1
  %12 = select i1 %11, ptr %3, ptr null
  %13 = load ptr, ptr @h245dg_handle, align 8
  call void @next_tvb_add_handle(ptr noundef %8, ptr noundef %9, ptr noundef %12, ptr noundef %13)
  call void @llvm.lifetime.end.p0(i64 8, ptr nonnull %6) #11
  ret i32 %7
}